ARM GAS  C:\Users\VIDEOH~1\AppData\Local\Temp\ccazulGc.s 			page 1


   1              		.syntax unified
   2              		.cpu cortex-m3
   3              		.fpu softvfp
   4              		.eabi_attribute 20, 1
   5              		.eabi_attribute 21, 1
   6              		.eabi_attribute 23, 3
   7              		.eabi_attribute 24, 1
   8              		.eabi_attribute 25, 1
   9              		.eabi_attribute 26, 1
  10              		.eabi_attribute 30, 1
  11              		.eabi_attribute 34, 1
  12              		.eabi_attribute 18, 4
  13              		.thumb
  14              		.syntax unified
  15              		.file	"main.c"
  16              		.text
  17              	.Ltext0:
  18              		.cfi_sections	.debug_frame
  19              		.section	.text.TIMER100HZ_HANDLER,"ax",%progbits
  20              		.align	2
  21              		.global	TIMER100HZ_HANDLER
  22              		.thumb
  23              		.thumb_func
  24              		.type	TIMER100HZ_HANDLER, %function
  25              	TIMER100HZ_HANDLER:
  26              	.LFB63:
  27              		.file 1 "main.c"
   1:main.c        **** /* ========================================
   2:main.c        ****  *
   3:main.c        ****  * Copyright YOUR COMPANY, THE YEAR
   4:main.c        ****  * All Rights Reserved
   5:main.c        ****  * UNPUBLISHED, LICENSED SOFTWARE.
   6:main.c        ****  *
   7:main.c        ****  * CONFIDENTIAL AND PROPRIETARY INFORMATION
   8:main.c        ****  * WHICH IS THE PROPERTY OF your company.
   9:main.c        ****  *
  10:main.c        ****  * ========================================
  11:main.c        **** */
  12:main.c        **** #include "project.h"
  13:main.c        **** #include "font.h"
  14:main.c        **** #include "color.h"
  15:main.c        **** 
  16:main.c        **** #define LED_WIDTH 10
  17:main.c        **** #define LED_HIGH 10
  18:main.c        **** #define TIMER_ISR_TC_MASK 0x8
  19:main.c        **** 
  20:main.c        **** struct {
  21:main.c        ****     uint8 buffer[LED_WIDTH*LED_HIGH*3];
  22:main.c        ****     uint8 draw_buffer[LED_WIDTH*LED_HIGH*3];
  23:main.c        ****     volatile uint8 *buffer_ptr;
  24:main.c        ****     volatile uint32 wait_tx :1;
  25:main.c        **** } ws2812_struct;
  26:main.c        **** 
  27:main.c        **** void writePixelRGB(uint8 x, uint8 y, uint32 color);
  28:main.c        **** void fillScreen(uint32 color);
  29:main.c        **** void copyBuffer(uint32 *src, uint32 *dst, uint32 num);
  30:main.c        **** void writeChar(uint8 column_display, uint8 column_char, uint8 id_char, uint32 color, uint32 backgro
ARM GAS  C:\Users\VIDEOH~1\AppData\Local\Temp\ccazulGc.s 			page 2


  31:main.c        **** void scrolStr(uint8 *str, uint16 len, uint32 *char_color, uint32 background_color);
  32:main.c        **** 
  33:main.c        **** CY_ISR_PROTO(WS2812_HANDLER);
  34:main.c        **** CY_ISR_PROTO(TIMER100HZ_HANDLER);
  35:main.c        **** 
  36:main.c        **** CY_ISR(TIMER100HZ_HANDLER)
  37:main.c        **** {
  28              		.loc 1 37 0
  29              		.cfi_startproc
  30              		@ args = 0, pretend = 0, frame = 0
  31              		@ frame_needed = 0, uses_anonymous_args = 0
  32 0000 08B5     		push	{r3, lr}
  33              		.cfi_def_cfa_offset 8
  34              		.cfi_offset 3, -8
  35              		.cfi_offset 14, -4
  38:main.c        ****     if(Timer_1_STATUS & TIMER_ISR_TC_MASK)
  36              		.loc 1 38 0
  37 0002 074B     		ldr	r3, .L4
  38 0004 1B78     		ldrb	r3, [r3]	@ zero_extendqisi2
  39 0006 13F0080F 		tst	r3, #8
  40 000a 08D0     		beq	.L1
  39:main.c        ****     {
  40:main.c        ****         isr_ws2812_Enable();
  41              		.loc 1 40 0
  42 000c FFF7FEFF 		bl	isr_ws2812_Enable
  43              	.LVL0:
  41:main.c        ****         ws2812_struct.wait_tx=0;
  44              		.loc 1 41 0
  45 0010 044A     		ldr	r2, .L4+4
  46 0012 92F85C32 		ldrb	r3, [r2, #604]	@ zero_extendqisi2
  47 0016 6FF30003 		bfc	r3, #0, #1
  48 001a 82F85C32 		strb	r3, [r2, #604]
  49              	.L1:
  50 001e 08BD     		pop	{r3, pc}
  51              	.L5:
  52              		.align	2
  53              	.L4:
  54 0020 034F0040 		.word	1073762051
  55 0024 00000000 		.word	ws2812_struct
  56              		.cfi_endproc
  57              	.LFE63:
  58              		.size	TIMER100HZ_HANDLER, .-TIMER100HZ_HANDLER
  59              		.section	.text.WS2812_HANDLER,"ax",%progbits
  60              		.align	2
  61              		.global	WS2812_HANDLER
  62              		.thumb
  63              		.thumb_func
  64              		.type	WS2812_HANDLER, %function
  65              	WS2812_HANDLER:
  66              	.LFB64:
  42:main.c        ****     }
  43:main.c        ****         
  44:main.c        **** }
  45:main.c        **** CY_ISR(WS2812_HANDLER)
  46:main.c        **** {
  67              		.loc 1 46 0
  68              		.cfi_startproc
ARM GAS  C:\Users\VIDEOH~1\AppData\Local\Temp\ccazulGc.s 			page 3


  69              		@ args = 0, pretend = 0, frame = 0
  70              		@ frame_needed = 0, uses_anonymous_args = 0
  71 0000 10B5     		push	{r4, lr}
  72              		.cfi_def_cfa_offset 8
  73              		.cfi_offset 4, -8
  74              		.cfi_offset 14, -4
  75              	.LVL1:
  76              	.LBB2:
  47:main.c        ****     for(int i=0; i<ws2812_1_FIFO_LEVELS;i++)
  77              		.loc 1 47 0
  78 0002 0020     		movs	r0, #0
  79 0004 1BE0     		b	.L7
  80              	.LVL2:
  81              	.L10:
  48:main.c        ****     {
  49:main.c        ****         ws2812_1_data_fifo=*ws2812_struct.buffer_ptr;
  82              		.loc 1 49 0
  83 0006 0F4A     		ldr	r2, .L12
  84 0008 D2F85832 		ldr	r3, [r2, #600]
  85 000c 1978     		ldrb	r1, [r3]	@ zero_extendqisi2
  86 000e C9B2     		uxtb	r1, r1
  87 0010 0D4C     		ldr	r4, .L12+4
  88 0012 2170     		strb	r1, [r4]
  50:main.c        ****         if(ws2812_struct.buffer_ptr==&ws2812_struct.buffer[sizeof(ws2812_struct.buffer)-1])
  89              		.loc 1 50 0
  90 0014 02F22B12 		addw	r2, r2, #299
  91 0018 9342     		cmp	r3, r2
  92 001a 0BD1     		bne	.L8
  51:main.c        ****         {
  52:main.c        ****             isr_ws2812_Disable();
  93              		.loc 1 52 0
  94 001c FFF7FEFF 		bl	isr_ws2812_Disable
  95              	.LVL3:
  53:main.c        ****             ws2812_struct.wait_tx=1;
  96              		.loc 1 53 0
  97 0020 084B     		ldr	r3, .L12
  98 0022 93F85C22 		ldrb	r2, [r3, #604]	@ zero_extendqisi2
  99 0026 42F00102 		orr	r2, r2, #1
 100 002a 83F85C22 		strb	r2, [r3, #604]
  54:main.c        ****             ws2812_struct.buffer_ptr=ws2812_struct.buffer;
 101              		.loc 1 54 0
 102 002e C3F85832 		str	r3, [r3, #600]
  55:main.c        ****             break;
 103              		.loc 1 55 0
 104 0032 10BD     		pop	{r4, pc}
 105              	.LVL4:
 106              	.L8:
  56:main.c        ****         }
  57:main.c        ****         else
  58:main.c        ****         {
  59:main.c        ****             ws2812_struct.buffer_ptr++;
 107              		.loc 1 59 0 discriminator 2
 108 0034 0133     		adds	r3, r3, #1
 109 0036 034A     		ldr	r2, .L12
 110 0038 C2F85832 		str	r3, [r2, #600]
  47:main.c        ****     {
 111              		.loc 1 47 0 discriminator 2
ARM GAS  C:\Users\VIDEOH~1\AppData\Local\Temp\ccazulGc.s 			page 4


 112 003c 0130     		adds	r0, r0, #1
 113              	.LVL5:
 114              	.L7:
  47:main.c        ****     {
 115              		.loc 1 47 0 is_stmt 0 discriminator 1
 116 003e 0328     		cmp	r0, #3
 117 0040 E1DD     		ble	.L10
 118 0042 10BD     		pop	{r4, pc}
 119              	.L13:
 120              		.align	2
 121              	.L12:
 122 0044 00000000 		.word	ws2812_struct
 123 0048 49650040 		.word	1073767753
 124              	.LBE2:
 125              		.cfi_endproc
 126              	.LFE64:
 127              		.size	WS2812_HANDLER, .-WS2812_HANDLER
 128              		.section	.text.copyBuffer,"ax",%progbits
 129              		.align	2
 130              		.global	copyBuffer
 131              		.thumb
 132              		.thumb_func
 133              		.type	copyBuffer, %function
 134              	copyBuffer:
 135              	.LFB67:
  60:main.c        ****         }
  61:main.c        ****     }
  62:main.c        **** }
  63:main.c        **** 
  64:main.c        **** int main(void)
  65:main.c        **** {
  66:main.c        ****     ws2812_struct.buffer_ptr=ws2812_struct.buffer;
  67:main.c        ****     fillScreen(0);
  68:main.c        ****     CyGlobalIntEnable; /* Enable global interrupts. */
  69:main.c        ****     Timer_1_Start();
  70:main.c        ****     ws2812_1_Start();
  71:main.c        ****     isr_ws2812_StartEx(WS2812_HANDLER);
  72:main.c        ****     isr_timer_StartEx(TIMER100HZ_HANDLER);
  73:main.c        ****     
  74:main.c        ****     uint16 delay=0;
  75:main.c        ****     for(;;)
  76:main.c        ****     {
  77:main.c        ****         if((delay++)==20)
  78:main.c        ****         {
  79:main.c        ****             delay=0;
  80:main.c        ****             scrolStr(text, sizeof(text), color , BACKGROUND);
  81:main.c        ****         }
  82:main.c        ****         while(ws2812_struct.wait_tx==0);
  83:main.c        ****         ws2812_struct.wait_tx=0;
  84:main.c        ****         copyBuffer((uint32*)ws2812_struct.draw_buffer,(uint32*)ws2812_struct.buffer,sizeof(ws2812_s
  85:main.c        ****     }
  86:main.c        **** }
  87:main.c        **** void scrolStr(uint8 *str, uint16 len, uint32 *char_color, uint32 background_color)
  88:main.c        **** {
  89:main.c        ****     static uint16 begin_position=LED_WIDTH-1;
  90:main.c        ****     static uint16 index_position=0;
  91:main.c        ****     static uint16 point_position=0;
ARM GAS  C:\Users\VIDEOH~1\AppData\Local\Temp\ccazulGc.s 			page 5


  92:main.c        ****     for(int16 i=0;i<((LED_WIDTH-begin_position-1)/FONT_WIDTH)+1;i++)
  93:main.c        ****     {
  94:main.c        ****         uint8 idx_char=index_position+i;
  95:main.c        ****         if(idx_char==len)
  96:main.c        ****             idx_char=0;
  97:main.c        ****         writeChar(i==0 ? begin_position : begin_position+FONT_WIDTH-point_position+FONT_WIDTH*(i-1)
  98:main.c        ****             i==0 ? point_position : 0,\
  99:main.c        ****             str[idx_char],\
 100:main.c        ****             char_color[idx_char],\
 101:main.c        ****             background_color);
 102:main.c        ****     }
 103:main.c        ****     if(begin_position!=0)
 104:main.c        ****         begin_position--;
 105:main.c        ****     else
 106:main.c        ****     {
 107:main.c        ****         if(point_position==(FONT_WIDTH-1))
 108:main.c        ****         {
 109:main.c        ****             point_position=0;
 110:main.c        ****             if(index_position==len-1)
 111:main.c        ****                 index_position=0;
 112:main.c        ****             else
 113:main.c        ****                 index_position++;
 114:main.c        ****         }
 115:main.c        ****         else
 116:main.c        ****             point_position++;
 117:main.c        ****     }
 118:main.c        **** }
 119:main.c        **** void copyBuffer(uint32 *src, uint32 *dst, uint32 num)
 120:main.c        **** {
 136              		.loc 1 120 0 is_stmt 1
 137              		.cfi_startproc
 138              		@ args = 0, pretend = 0, frame = 0
 139              		@ frame_needed = 0, uses_anonymous_args = 0
 140              		@ link register save eliminated.
 141              	.LVL6:
 142 0000 10B4     		push	{r4}
 143              		.cfi_def_cfa_offset 4
 144              		.cfi_offset 4, -4
 145              	.LVL7:
 146              	.LBB3:
 121:main.c        ****     for(uint32 i=0;i<num;i++)
 147              		.loc 1 121 0
 148 0002 0023     		movs	r3, #0
 149 0004 04E0     		b	.L15
 150              	.LVL8:
 151              	.L16:
 122:main.c        ****         *(dst++)=*(src++);
 152              		.loc 1 122 0 discriminator 3
 153 0006 0468     		ldr	r4, [r0]
 154 0008 0C60     		str	r4, [r1]
 121:main.c        ****     for(uint32 i=0;i<num;i++)
 155              		.loc 1 121 0 discriminator 3
 156 000a 0133     		adds	r3, r3, #1
 157              	.LVL9:
 158              		.loc 1 122 0 discriminator 3
 159 000c 0431     		adds	r1, r1, #4
 160              	.LVL10:
ARM GAS  C:\Users\VIDEOH~1\AppData\Local\Temp\ccazulGc.s 			page 6


 161 000e 0430     		adds	r0, r0, #4
 162              	.LVL11:
 163              	.L15:
 121:main.c        ****     for(uint32 i=0;i<num;i++)
 164              		.loc 1 121 0 discriminator 1
 165 0010 9342     		cmp	r3, r2
 166 0012 F8D3     		bcc	.L16
 167              	.LBE3:
 123:main.c        **** }
 168              		.loc 1 123 0
 169 0014 10BC     		pop	{r4}
 170              		.cfi_restore 4
 171              		.cfi_def_cfa_offset 0
 172 0016 7047     		bx	lr
 173              		.cfi_endproc
 174              	.LFE67:
 175              		.size	copyBuffer, .-copyBuffer
 176              		.section	.text.writePixelRGB,"ax",%progbits
 177              		.align	2
 178              		.global	writePixelRGB
 179              		.thumb
 180              		.thumb_func
 181              		.type	writePixelRGB, %function
 182              	writePixelRGB:
 183              	.LFB69:
 124:main.c        **** void writeChar(uint8 column_display, uint8 column_char, uint8 id_char, uint32 char_color, uint32 ba
 125:main.c        **** {
 126:main.c        ****     uint8 shift;
 127:main.c        ****     for(int8 j=LED_HIGH-1;j>=0;j--)
 128:main.c        ****     {
 129:main.c        ****         shift=0x80>>column_char;
 130:main.c        ****         for(uint8 i=column_display;i<(column_display+FONT_WIDTH) && i<LED_WIDTH;i++)
 131:main.c        ****         {
 132:main.c        ****             if(font[id_char][j]&shift)
 133:main.c        ****                 writePixelRGB(i,FONT_HIGH-j-1,char_color);
 134:main.c        ****             else
 135:main.c        ****                 writePixelRGB(i,FONT_HIGH-j-1,background_color);
 136:main.c        ****             shift >>=1;
 137:main.c        ****         }
 138:main.c        ****     }
 139:main.c        **** }
 140:main.c        **** void writePixelRGB(uint8 x, uint8 y, uint32 color)
 141:main.c        **** {
 184              		.loc 1 141 0
 185              		.cfi_startproc
 186              		@ args = 0, pretend = 0, frame = 0
 187              		@ frame_needed = 0, uses_anonymous_args = 0
 188              		@ link register save eliminated.
 189              	.LVL12:
 190 0000 30B4     		push	{r4, r5}
 191              		.cfi_def_cfa_offset 8
 192              		.cfi_offset 4, -8
 193              		.cfi_offset 5, -4
 142:main.c        ****     uint16 point=(LED_HIGH*(LED_WIDTH-x-1)+y)*3;
 194              		.loc 1 142 0
 195 0002 C0F10900 		rsb	r0, r0, #9
 196              	.LVL13:
ARM GAS  C:\Users\VIDEOH~1\AppData\Local\Temp\ccazulGc.s 			page 7


 197 0006 00EB8000 		add	r0, r0, r0, lsl #2
 198 000a 4300     		lsls	r3, r0, #1
 199 000c 1944     		add	r1, r1, r3
 200              	.LVL14:
 201 000e 01EB4101 		add	r1, r1, r1, lsl #1
 202 0012 89B2     		uxth	r1, r1
 203              	.LVL15:
 143:main.c        ****     ws2812_struct.draw_buffer[point++]=(uint8)(color>>16);
 204              		.loc 1 143 0
 205 0014 4B1C     		adds	r3, r1, #1
 206 0016 9BB2     		uxth	r3, r3
 207              	.LVL16:
 208 0018 C2F30745 		ubfx	r5, r2, #16, #8
 209 001c 0748     		ldr	r0, .L20
 210 001e 4418     		adds	r4, r0, r1
 211 0020 84F82C51 		strb	r5, [r4, #300]
 144:main.c        ****     ws2812_struct.draw_buffer[point++]=(uint8)(color>>8);
 212              		.loc 1 144 0
 213 0024 0231     		adds	r1, r1, #2
 214 0026 89B2     		uxth	r1, r1
 215              	.LVL17:
 216 0028 C2F30724 		ubfx	r4, r2, #8, #8
 217 002c 0344     		add	r3, r3, r0
 218 002e 83F82C41 		strb	r4, [r3, #300]
 145:main.c        ****     ws2812_struct.draw_buffer[point]=(uint8)color;
 219              		.loc 1 145 0
 220 0032 0144     		add	r1, r1, r0
 221              	.LVL18:
 222 0034 81F82C21 		strb	r2, [r1, #300]
 146:main.c        **** }
 223              		.loc 1 146 0
 224 0038 30BC     		pop	{r4, r5}
 225              		.cfi_restore 5
 226              		.cfi_restore 4
 227              		.cfi_def_cfa_offset 0
 228 003a 7047     		bx	lr
 229              	.L21:
 230              		.align	2
 231              	.L20:
 232 003c 00000000 		.word	ws2812_struct
 233              		.cfi_endproc
 234              	.LFE69:
 235              		.size	writePixelRGB, .-writePixelRGB
 236              		.section	.text.writeChar,"ax",%progbits
 237              		.align	2
 238              		.global	writeChar
 239              		.thumb
 240              		.thumb_func
 241              		.type	writeChar, %function
 242              	writeChar:
 243              	.LFB68:
 125:main.c        ****     uint8 shift;
 244              		.loc 1 125 0
 245              		.cfi_startproc
 246              		@ args = 4, pretend = 0, frame = 0
 247              		@ frame_needed = 0, uses_anonymous_args = 0
 248              	.LVL19:
ARM GAS  C:\Users\VIDEOH~1\AppData\Local\Temp\ccazulGc.s 			page 8


 249 0000 2DE9F84F 		push	{r3, r4, r5, r6, r7, r8, r9, r10, fp, lr}
 250              		.cfi_def_cfa_offset 40
 251              		.cfi_offset 3, -40
 252              		.cfi_offset 4, -36
 253              		.cfi_offset 5, -32
 254              		.cfi_offset 6, -28
 255              		.cfi_offset 7, -24
 256              		.cfi_offset 8, -20
 257              		.cfi_offset 9, -16
 258              		.cfi_offset 10, -12
 259              		.cfi_offset 11, -8
 260              		.cfi_offset 14, -4
 261 0004 8046     		mov	r8, r0
 262 0006 8B46     		mov	fp, r1
 263 0008 1746     		mov	r7, r2
 264 000a 9A46     		mov	r10, r3
 265 000c DDF82890 		ldr	r9, [sp, #40]
 266              	.LVL20:
 267              	.LBB4:
 127:main.c        ****     {
 268              		.loc 1 127 0
 269 0010 0926     		movs	r6, #9
 270 0012 27E0     		b	.L23
 271              	.LVL21:
 272              	.L29:
 129:main.c        ****         for(uint8 i=column_display;i<(column_display+FONT_WIDTH) && i<LED_WIDTH;i++)
 273              		.loc 1 129 0
 274 0014 8025     		movs	r5, #128
 275 0016 45FA0BF5 		asr	r5, r5, fp
 276 001a EDB2     		uxtb	r5, r5
 277              	.LVL22:
 278              	.LBB5:
 130:main.c        ****         {
 279              		.loc 1 130 0
 280 001c 4446     		mov	r4, r8
 281 001e 19E0     		b	.L24
 282              	.LVL23:
 283              	.L28:
 132:main.c        ****                 writePixelRGB(i,FONT_HIGH-j-1,char_color);
 284              		.loc 1 132 0
 285 0020 07EB8702 		add	r2, r7, r7, lsl #2
 286 0024 5300     		lsls	r3, r2, #1
 287 0026 114A     		ldr	r2, .L31
 288 0028 1344     		add	r3, r3, r2
 289 002a 9B5D     		ldrb	r3, [r3, r6]	@ zero_extendqisi2
 290 002c 1D42     		tst	r5, r3
 291 002e 07D0     		beq	.L25
 133:main.c        ****             else
 292              		.loc 1 133 0
 293 0030 C6F10901 		rsb	r1, r6, #9
 294 0034 5246     		mov	r2, r10
 295 0036 C9B2     		uxtb	r1, r1
 296 0038 2046     		mov	r0, r4
 297 003a FFF7FEFF 		bl	writePixelRGB
 298              	.LVL24:
 299 003e 06E0     		b	.L26
 300              	.L25:
ARM GAS  C:\Users\VIDEOH~1\AppData\Local\Temp\ccazulGc.s 			page 9


 135:main.c        ****             shift >>=1;
 301              		.loc 1 135 0
 302 0040 C6F10901 		rsb	r1, r6, #9
 303 0044 4A46     		mov	r2, r9
 304 0046 C9B2     		uxtb	r1, r1
 305 0048 2046     		mov	r0, r4
 306 004a FFF7FEFF 		bl	writePixelRGB
 307              	.LVL25:
 308              	.L26:
 136:main.c        ****         }
 309              		.loc 1 136 0 discriminator 2
 310 004e 6D08     		lsrs	r5, r5, #1
 311              	.LVL26:
 130:main.c        ****         {
 312              		.loc 1 130 0 discriminator 2
 313 0050 0134     		adds	r4, r4, #1
 314              	.LVL27:
 315 0052 E4B2     		uxtb	r4, r4
 316              	.LVL28:
 317              	.L24:
 130:main.c        ****         {
 318              		.loc 1 130 0 is_stmt 0 discriminator 1
 319 0054 08F10803 		add	r3, r8, #8
 320 0058 9C42     		cmp	r4, r3
 321 005a 01DA     		bge	.L27
 130:main.c        ****         {
 322              		.loc 1 130 0 discriminator 3
 323 005c 092C     		cmp	r4, #9
 324 005e DFD9     		bls	.L28
 325              	.L27:
 326              	.LBE5:
 127:main.c        ****     {
 327              		.loc 1 127 0 is_stmt 1 discriminator 2
 328 0060 013E     		subs	r6, r6, #1
 329              	.LVL29:
 330 0062 76B2     		sxtb	r6, r6
 331              	.LVL30:
 332              	.L23:
 127:main.c        ****     {
 333              		.loc 1 127 0 is_stmt 0 discriminator 1
 334 0064 002E     		cmp	r6, #0
 335 0066 D5DA     		bge	.L29
 336              	.LBE4:
 139:main.c        **** void writePixelRGB(uint8 x, uint8 y, uint32 color)
 337              		.loc 1 139 0 is_stmt 1
 338 0068 BDE8F88F 		pop	{r3, r4, r5, r6, r7, r8, r9, r10, fp, pc}
 339              	.LVL31:
 340              	.L32:
 341              		.align	2
 342              	.L31:
 343 006c 00000000 		.word	.LANCHOR0
 344              		.cfi_endproc
 345              	.LFE68:
 346              		.size	writeChar, .-writeChar
 347              		.section	.text.scrolStr,"ax",%progbits
 348              		.align	2
 349              		.global	scrolStr
ARM GAS  C:\Users\VIDEOH~1\AppData\Local\Temp\ccazulGc.s 			page 10


 350              		.thumb
 351              		.thumb_func
 352              		.type	scrolStr, %function
 353              	scrolStr:
 354              	.LFB66:
  88:main.c        ****     static uint16 begin_position=LED_WIDTH-1;
 355              		.loc 1 88 0
 356              		.cfi_startproc
 357              		@ args = 0, pretend = 0, frame = 0
 358              		@ frame_needed = 0, uses_anonymous_args = 0
 359              	.LVL32:
 360 0000 2DE9F041 		push	{r4, r5, r6, r7, r8, lr}
 361              		.cfi_def_cfa_offset 24
 362              		.cfi_offset 4, -24
 363              		.cfi_offset 5, -20
 364              		.cfi_offset 6, -16
 365              		.cfi_offset 7, -12
 366              		.cfi_offset 8, -8
 367              		.cfi_offset 14, -4
 368 0004 82B0     		sub	sp, sp, #8
 369              		.cfi_def_cfa_offset 32
 370 0006 8046     		mov	r8, r0
 371 0008 0D46     		mov	r5, r1
 372 000a 1746     		mov	r7, r2
 373 000c 1E46     		mov	r6, r3
 374              	.LVL33:
 375              	.LBB6:
  92:main.c        ****     {
 376              		.loc 1 92 0
 377 000e 0024     		movs	r4, #0
 378 0010 20E0     		b	.L34
 379              	.LVL34:
 380              	.L40:
 381              	.LBB7:
  94:main.c        ****         if(idx_char==len)
 382              		.loc 1 94 0
 383 0012 244B     		ldr	r3, .L48
 384 0014 1A78     		ldrb	r2, [r3]	@ zero_extendqisi2
 385 0016 2244     		add	r2, r2, r4
 386 0018 D2B2     		uxtb	r2, r2
 387              	.LVL35:
  95:main.c        ****             idx_char=0;
 388              		.loc 1 95 0
 389 001a 93B2     		uxth	r3, r2
 390 001c AB42     		cmp	r3, r5
 391 001e 00D1     		bne	.L35
  96:main.c        ****         writeChar(i==0 ? begin_position : begin_position+FONT_WIDTH-point_position+FONT_WIDTH*(i-1)
 392              		.loc 1 96 0
 393 0020 0022     		movs	r2, #0
 394              	.LVL36:
 395              	.L35:
  97:main.c        ****             i==0 ? point_position : 0,\
 396              		.loc 1 97 0
 397 0022 0CB9     		cbnz	r4, .L36
  97:main.c        ****             i==0 ? point_position : 0,\
 398              		.loc 1 97 0 is_stmt 0 discriminator 1
 399 0024 C0B2     		uxtb	r0, r0
ARM GAS  C:\Users\VIDEOH~1\AppData\Local\Temp\ccazulGc.s 			page 11


 400 0026 07E0     		b	.L37
 401              	.L36:
  97:main.c        ****             i==0 ? point_position : 0,\
 402              		.loc 1 97 0 discriminator 2
 403 0028 0139     		subs	r1, r1, #1
 404 002a 1E4B     		ldr	r3, .L48
 405 002c 9B78     		ldrb	r3, [r3, #2]	@ zero_extendqisi2
 406 002e C01A     		subs	r0, r0, r3
 407 0030 00EBC100 		add	r0, r0, r1, lsl #3
 408 0034 0830     		adds	r0, r0, #8
 409 0036 C0B2     		uxtb	r0, r0
 410              	.L37:
  97:main.c        ****             i==0 ? point_position : 0,\
 411              		.loc 1 97 0 discriminator 4
 412 0038 14B9     		cbnz	r4, .L46
  97:main.c        ****             i==0 ? point_position : 0,\
 413              		.loc 1 97 0 discriminator 5
 414 003a 1A4B     		ldr	r3, .L48
 415 003c 9978     		ldrb	r1, [r3, #2]	@ zero_extendqisi2
 416 003e 00E0     		b	.L38
 417              	.L46:
  97:main.c        ****             i==0 ? point_position : 0,\
 418              		.loc 1 97 0
 419 0040 0021     		movs	r1, #0
 420              	.L38:
  97:main.c        ****             i==0 ? point_position : 0,\
 421              		.loc 1 97 0 discriminator 2
 422 0042 57F82230 		ldr	r3, [r7, r2, lsl #2]
 423 0046 18F80220 		ldrb	r2, [r8, r2]	@ zero_extendqisi2
 424              	.LVL37:
 425 004a 0096     		str	r6, [sp]
 426 004c FFF7FEFF 		bl	writeChar
 427              	.LVL38:
 428              	.LBE7:
  92:main.c        ****     {
 429              		.loc 1 92 0 is_stmt 1 discriminator 2
 430 0050 0134     		adds	r4, r4, #1
 431              	.LVL39:
 432 0052 24B2     		sxth	r4, r4
 433              	.LVL40:
 434              	.L34:
  92:main.c        ****     {
 435              		.loc 1 92 0 is_stmt 0 discriminator 1
 436 0054 2146     		mov	r1, r4
 437 0056 144B     		ldr	r3, .L48+4
 438 0058 1888     		ldrh	r0, [r3]
 439 005a D0F10903 		rsbs	r3, r0, #9
 440 005e 00D5     		bpl	.L39
 441 0060 0733     		adds	r3, r3, #7
 442              	.L39:
 443 0062 DB10     		asrs	r3, r3, #3
 444 0064 0133     		adds	r3, r3, #1
 445 0066 9942     		cmp	r1, r3
 446 0068 D3DB     		blt	.L40
 447              	.LBE6:
 103:main.c        ****         begin_position--;
 448              		.loc 1 103 0 is_stmt 1
ARM GAS  C:\Users\VIDEOH~1\AppData\Local\Temp\ccazulGc.s 			page 12


 449 006a 18B1     		cbz	r0, .L41
 104:main.c        ****     else
 450              		.loc 1 104 0
 451 006c 0138     		subs	r0, r0, #1
 452 006e 0E4B     		ldr	r3, .L48+4
 453 0070 1880     		strh	r0, [r3]	@ movhi
 454 0072 14E0     		b	.L33
 455              	.L41:
 107:main.c        ****         {
 456              		.loc 1 107 0
 457 0074 0B4B     		ldr	r3, .L48
 458 0076 5B88     		ldrh	r3, [r3, #2]
 459 0078 072B     		cmp	r3, #7
 460 007a 0DD1     		bne	.L43
 109:main.c        ****             if(index_position==len-1)
 461              		.loc 1 109 0
 462 007c 094B     		ldr	r3, .L48
 463 007e 0022     		movs	r2, #0
 464 0080 5A80     		strh	r2, [r3, #2]	@ movhi
 110:main.c        ****                 index_position=0;
 465              		.loc 1 110 0
 466 0082 1B88     		ldrh	r3, [r3]
 467 0084 013D     		subs	r5, r5, #1
 468 0086 AB42     		cmp	r3, r5
 469 0088 02D1     		bne	.L44
 111:main.c        ****             else
 470              		.loc 1 111 0
 471 008a 064B     		ldr	r3, .L48
 472 008c 1A80     		strh	r2, [r3]	@ movhi
 473 008e 06E0     		b	.L33
 474              	.L44:
 113:main.c        ****         }
 475              		.loc 1 113 0
 476 0090 0133     		adds	r3, r3, #1
 477 0092 044A     		ldr	r2, .L48
 478 0094 1380     		strh	r3, [r2]	@ movhi
 479 0096 02E0     		b	.L33
 480              	.L43:
 116:main.c        ****     }
 481              		.loc 1 116 0
 482 0098 0133     		adds	r3, r3, #1
 483 009a 024A     		ldr	r2, .L48
 484 009c 5380     		strh	r3, [r2, #2]	@ movhi
 485              	.L33:
 118:main.c        **** void copyBuffer(uint32 *src, uint32 *dst, uint32 num)
 486              		.loc 1 118 0
 487 009e 02B0     		add	sp, sp, #8
 488              		.cfi_def_cfa_offset 24
 489              		@ sp needed
 490 00a0 BDE8F081 		pop	{r4, r5, r6, r7, r8, pc}
 491              	.LVL41:
 492              	.L49:
 493              		.align	2
 494              	.L48:
 495 00a4 00000000 		.word	.LANCHOR1
 496 00a8 00000000 		.word	.LANCHOR2
 497              		.cfi_endproc
ARM GAS  C:\Users\VIDEOH~1\AppData\Local\Temp\ccazulGc.s 			page 13


 498              	.LFE66:
 499              		.size	scrolStr, .-scrolStr
 500              		.section	.text.fillScreen,"ax",%progbits
 501              		.align	2
 502              		.global	fillScreen
 503              		.thumb
 504              		.thumb_func
 505              		.type	fillScreen, %function
 506              	fillScreen:
 507              	.LFB70:
 147:main.c        **** void fillScreen(uint32 color)
 148:main.c        **** {
 508              		.loc 1 148 0
 509              		.cfi_startproc
 510              		@ args = 0, pretend = 0, frame = 0
 511              		@ frame_needed = 0, uses_anonymous_args = 0
 512              		@ link register save eliminated.
 513              	.LVL42:
 514 0000 10B4     		push	{r4}
 515              		.cfi_def_cfa_offset 4
 516              		.cfi_offset 4, -4
 517              	.LVL43:
 518              	.LBB8:
 149:main.c        ****     for(uint16 i=0;i<LED_WIDTH*LED_HIGH*3;i+=3)
 519              		.loc 1 149 0
 520 0002 0023     		movs	r3, #0
 521 0004 11E0     		b	.L51
 522              	.LVL44:
 523              	.L52:
 150:main.c        ****     {
 151:main.c        ****         ws2812_struct.draw_buffer[i]=(uint8)(color>>16);
 524              		.loc 1 151 0 discriminator 3
 525 0006 C0F30742 		ubfx	r2, r0, #16, #8
 526 000a 0A49     		ldr	r1, .L54
 527 000c CC18     		adds	r4, r1, r3
 528 000e 84F82C21 		strb	r2, [r4, #300]
 152:main.c        ****         ws2812_struct.draw_buffer[i+1]=(uint8)(color>>8);
 529              		.loc 1 152 0 discriminator 3
 530 0012 5A1C     		adds	r2, r3, #1
 531 0014 C0F30724 		ubfx	r4, r0, #8, #8
 532 0018 0A44     		add	r2, r2, r1
 533 001a 82F82C41 		strb	r4, [r2, #300]
 153:main.c        ****         ws2812_struct.draw_buffer[i+2]=(uint8)color;
 534              		.loc 1 153 0 discriminator 3
 535 001e 9A1C     		adds	r2, r3, #2
 536 0020 0A44     		add	r2, r2, r1
 537 0022 82F82C01 		strb	r0, [r2, #300]
 149:main.c        ****     {
 538              		.loc 1 149 0 discriminator 3
 539 0026 0333     		adds	r3, r3, #3
 540              	.LVL45:
 541 0028 9BB2     		uxth	r3, r3
 542              	.LVL46:
 543              	.L51:
 149:main.c        ****     {
 544              		.loc 1 149 0 is_stmt 0 discriminator 1
 545 002a B3F5967F 		cmp	r3, #300
ARM GAS  C:\Users\VIDEOH~1\AppData\Local\Temp\ccazulGc.s 			page 14


 546 002e EAD3     		bcc	.L52
 547              	.LBE8:
 154:main.c        ****     }
 155:main.c        **** }
 548              		.loc 1 155 0 is_stmt 1
 549 0030 10BC     		pop	{r4}
 550              		.cfi_restore 4
 551              		.cfi_def_cfa_offset 0
 552 0032 7047     		bx	lr
 553              	.L55:
 554              		.align	2
 555              	.L54:
 556 0034 00000000 		.word	ws2812_struct
 557              		.cfi_endproc
 558              	.LFE70:
 559              		.size	fillScreen, .-fillScreen
 560              		.section	.text.main,"ax",%progbits
 561              		.align	2
 562              		.global	main
 563              		.thumb
 564              		.thumb_func
 565              		.type	main, %function
 566              	main:
 567              	.LFB65:
  65:main.c        ****     ws2812_struct.buffer_ptr=ws2812_struct.buffer;
 568              		.loc 1 65 0
 569              		.cfi_startproc
 570              		@ args = 0, pretend = 0, frame = 0
 571              		@ frame_needed = 0, uses_anonymous_args = 0
 572 0000 10B5     		push	{r4, lr}
 573              		.cfi_def_cfa_offset 8
 574              		.cfi_offset 4, -8
 575              		.cfi_offset 14, -4
  66:main.c        ****     fillScreen(0);
 576              		.loc 1 66 0
 577 0002 1A4B     		ldr	r3, .L61
 578 0004 C3F85832 		str	r3, [r3, #600]
  67:main.c        ****     CyGlobalIntEnable; /* Enable global interrupts. */
 579              		.loc 1 67 0
 580 0008 0020     		movs	r0, #0
 581 000a FFF7FEFF 		bl	fillScreen
 582              	.LVL47:
  68:main.c        ****     Timer_1_Start();
 583              		.loc 1 68 0
 584              		.syntax unified
 585              	@ 68 "main.c" 1
 586 000e 62B6     		CPSIE   i
 587              	@ 0 "" 2
  69:main.c        ****     ws2812_1_Start();
 588              		.loc 1 69 0
 589              		.thumb
 590              		.syntax unified
 591 0010 FFF7FEFF 		bl	Timer_1_Start
 592              	.LVL48:
  70:main.c        ****     isr_ws2812_StartEx(WS2812_HANDLER);
 593              		.loc 1 70 0
 594 0014 FFF7FEFF 		bl	ws2812_1_Start
ARM GAS  C:\Users\VIDEOH~1\AppData\Local\Temp\ccazulGc.s 			page 15


 595              	.LVL49:
  71:main.c        ****     isr_timer_StartEx(TIMER100HZ_HANDLER);
 596              		.loc 1 71 0
 597 0018 1548     		ldr	r0, .L61+4
 598 001a FFF7FEFF 		bl	isr_ws2812_StartEx
 599              	.LVL50:
  72:main.c        ****     
 600              		.loc 1 72 0
 601 001e 1548     		ldr	r0, .L61+8
 602 0020 FFF7FEFF 		bl	isr_timer_StartEx
 603              	.LVL51:
  74:main.c        ****     for(;;)
 604              		.loc 1 74 0
 605 0024 0024     		movs	r4, #0
 606              	.LVL52:
 607              	.L59:
  77:main.c        ****         {
 608              		.loc 1 77 0
 609 0026 631C     		adds	r3, r4, #1
 610 0028 9BB2     		uxth	r3, r3
 611              	.LVL53:
 612 002a 142C     		cmp	r4, #20
 613 002c 08D1     		bne	.L57
 614              	.LVL54:
  80:main.c        ****         }
 615              		.loc 1 80 0
 616 002e 1248     		ldr	r0, .L61+12
 617 0030 4FF40023 		mov	r3, #524288
 618 0034 021D     		adds	r2, r0, #4
 619 0036 0A21     		movs	r1, #10
 620 0038 2C30     		adds	r0, r0, #44
 621 003a FFF7FEFF 		bl	scrolStr
 622              	.LVL55:
  79:main.c        ****             scrolStr(text, sizeof(text), color , BACKGROUND);
 623              		.loc 1 79 0
 624 003e 0023     		movs	r3, #0
 625              	.LVL56:
 626              	.L57:
  79:main.c        ****             scrolStr(text, sizeof(text), color , BACKGROUND);
 627              		.loc 1 79 0 is_stmt 0 discriminator 1
 628 0040 1C46     		mov	r4, r3
 629              	.L58:
 630              	.LVL57:
  82:main.c        ****         ws2812_struct.wait_tx=0;
 631              		.loc 1 82 0 is_stmt 1 discriminator 1
 632 0042 0A4B     		ldr	r3, .L61
 633 0044 D3F85C32 		ldr	r3, [r3, #604]
 634 0048 13F0010F 		tst	r3, #1
 635 004c F9D0     		beq	.L58
  83:main.c        ****         copyBuffer((uint32*)ws2812_struct.draw_buffer,(uint32*)ws2812_struct.buffer,sizeof(ws2812_s
 636              		.loc 1 83 0
 637 004e 0748     		ldr	r0, .L61
 638 0050 90F85C32 		ldrb	r3, [r0, #604]	@ zero_extendqisi2
 639 0054 6FF30003 		bfc	r3, #0, #1
 640 0058 80F85C32 		strb	r3, [r0, #604]
  84:main.c        ****     }
 641              		.loc 1 84 0
ARM GAS  C:\Users\VIDEOH~1\AppData\Local\Temp\ccazulGc.s 			page 16


 642 005c 4B22     		movs	r2, #75
 643 005e 0146     		mov	r1, r0
 644 0060 00F59670 		add	r0, r0, #300
 645 0064 FFF7FEFF 		bl	copyBuffer
 646              	.LVL58:
  85:main.c        **** }
 647              		.loc 1 85 0
 648 0068 DDE7     		b	.L59
 649              	.L62:
 650 006a 00BF     		.align	2
 651              	.L61:
 652 006c 00000000 		.word	ws2812_struct
 653 0070 00000000 		.word	WS2812_HANDLER
 654 0074 00000000 		.word	TIMER100HZ_HANDLER
 655 0078 00000000 		.word	.LANCHOR2
 656              		.cfi_endproc
 657              	.LFE65:
 658              		.size	main, .-main
 659              		.comm	ws2812_struct,608,4
 660              		.global	font
 661              		.global	color
 662              		.global	text
 663              		.section	.rodata
 664              		.align	2
 665              		.set	.LANCHOR0,. + 0
 666              		.type	font, %object
 667              		.size	font, 90
 668              	font:
 669 0000 66       		.byte	102
 670 0001 66       		.byte	102
 671 0002 66       		.byte	102
 672 0003 66       		.byte	102
 673 0004 7E       		.byte	126
 674 0005 66       		.byte	102
 675 0006 66       		.byte	102
 676 0007 66       		.byte	102
 677 0008 66       		.byte	102
 678 0009 00       		.byte	0
 679 000a 00       		.byte	0
 680 000b 00       		.byte	0
 681 000c 3C       		.byte	60
 682 000d 06       		.byte	6
 683 000e 06       		.byte	6
 684 000f 3E       		.byte	62
 685 0010 66       		.byte	102
 686 0011 66       		.byte	102
 687 0012 3E       		.byte	62
 688 0013 00       		.byte	0
 689 0014 60       		.byte	96
 690 0015 60       		.byte	96
 691 0016 7C       		.byte	124
 692 0017 66       		.byte	102
 693 0018 66       		.byte	102
 694 0019 66       		.byte	102
 695 001a 66       		.byte	102
 696 001b 66       		.byte	102
 697 001c 7C       		.byte	124
ARM GAS  C:\Users\VIDEOH~1\AppData\Local\Temp\ccazulGc.s 			page 17


 698 001d 00       		.byte	0
 699 001e 00       		.byte	0
 700 001f 00       		.byte	0
 701 0020 3C       		.byte	60
 702 0021 66       		.byte	102
 703 0022 66       		.byte	102
 704 0023 7E       		.byte	126
 705 0024 60       		.byte	96
 706 0025 60       		.byte	96
 707 0026 3C       		.byte	60
 708 0027 00       		.byte	0
 709 0028 78       		.byte	120
 710 0029 18       		.byte	24
 711 002a 18       		.byte	24
 712 002b 18       		.byte	24
 713 002c 18       		.byte	24
 714 002d 18       		.byte	24
 715 002e 18       		.byte	24
 716 002f 18       		.byte	24
 717 0030 7E       		.byte	126
 718 0031 00       		.byte	0
 719 0032 00       		.byte	0
 720 0033 00       		.byte	0
 721 0034 3C       		.byte	60
 722 0035 66       		.byte	102
 723 0036 66       		.byte	102
 724 0037 66       		.byte	102
 725 0038 66       		.byte	102
 726 0039 66       		.byte	102
 727 003a 3C       		.byte	60
 728 003b 00       		.byte	0
 729 003c 00       		.byte	0
 730 003d 00       		.byte	0
 731 003e 66       		.byte	102
 732 003f 6E       		.byte	110
 733 0040 70       		.byte	112
 734 0041 60       		.byte	96
 735 0042 60       		.byte	96
 736 0043 60       		.byte	96
 737 0044 60       		.byte	96
 738 0045 00       		.byte	0
 739 0046 00       		.byte	0
 740 0047 00       		.byte	0
 741 0048 36       		.byte	54
 742 0049 7F       		.byte	127
 743 004a 7F       		.byte	127
 744 004b 3E       		.byte	62
 745 004c 1C       		.byte	28
 746 004d 08       		.byte	8
 747 004e 00       		.byte	0
 748 004f 00       		.byte	0
 749 0050 00       		.byte	0
 750 0051 00       		.byte	0
 751 0052 00       		.byte	0
 752 0053 00       		.byte	0
 753 0054 00       		.byte	0
 754 0055 00       		.byte	0
ARM GAS  C:\Users\VIDEOH~1\AppData\Local\Temp\ccazulGc.s 			page 18


 755 0056 00       		.byte	0
 756 0057 00       		.byte	0
 757 0058 00       		.byte	0
 758 0059 00       		.byte	0
 759              		.data
 760              		.align	2
 761              		.set	.LANCHOR2,. + 0
 762              		.type	begin_position.5695, %object
 763              		.size	begin_position.5695, 2
 764              	begin_position.5695:
 765 0000 0900     		.short	9
 766 0002 0000     		.space	2
 767              		.type	color, %object
 768              		.size	color, 40
 769              	color:
 770 0004 007E0000 		.word	32256
 771 0008 7E000000 		.word	126
 772 000c 7E000000 		.word	126
 773 0010 7E000000 		.word	126
 774 0014 7E000000 		.word	126
 775 0018 7E000000 		.word	126
 776 001c 3F003F00 		.word	4128831
 777 0020 3F003F00 		.word	4128831
 778 0024 3F003F00 		.word	4128831
 779 0028 3F003F00 		.word	4128831
 780              		.type	text, %object
 781              		.size	text, 10
 782              	text:
 783 002c 07       		.byte	7
 784 002d 00       		.byte	0
 785 002e 03       		.byte	3
 786 002f 04       		.byte	4
 787 0030 04       		.byte	4
 788 0031 05       		.byte	5
 789 0032 00       		.byte	0
 790 0033 01       		.byte	1
 791 0034 02       		.byte	2
 792 0035 06       		.byte	6
 793              		.bss
 794              		.align	1
 795              		.set	.LANCHOR1,. + 0
 796              		.type	index_position.5696, %object
 797              		.size	index_position.5696, 2
 798              	index_position.5696:
 799 0000 0000     		.space	2
 800              		.type	point_position.5697, %object
 801              		.size	point_position.5697, 2
 802              	point_position.5697:
 803 0002 0000     		.space	2
 804              		.text
 805              	.Letext0:
 806              		.file 2 "c:\\program files (x86)\\cypress\\psoc creator\\4.4\\psoc creator\\import\\gnu\\arm\\5.4.
 807              		.file 3 "c:\\program files (x86)\\cypress\\psoc creator\\4.4\\psoc creator\\import\\gnu\\arm\\5.4.
 808              		.file 4 "Generated_Source\\PSoC5/cytypes.h"
 809              		.file 5 "Generated_Source\\PSoC5/core_cm3.h"
 810              		.file 6 "font.h"
 811              		.file 7 "Generated_Source\\PSoC5/isr_ws2812.h"
ARM GAS  C:\Users\VIDEOH~1\AppData\Local\Temp\ccazulGc.s 			page 19


 812              		.file 8 "Generated_Source\\PSoC5/Timer_1.h"
 813              		.file 9 "Generated_Source\\PSoC5/ws2812_1.h"
 814              		.file 10 "Generated_Source\\PSoC5/isr_timer.h"